; Function Attrs: nounwind uwtable
define i32 @cli_bcapi_memstr(ptr nocapture noundef readonly %0, ptr noundef %1, i32 noundef %2, ptr noundef %3, i32 noundef %4) local_unnamed_addr #1 {
  %6 = icmp eq ptr %1, null
  %7 = icmp eq ptr %3, null
  %or.cond.not27 = or i1 %6, %7
  %8 = or i32 %4, %2
  %9 = icmp slt i32 %8, 0
  %or.cond5 = or i1 %or.cond.not27, %9
  %10 = getelementptr inbounds i8, ptr %0, i64 1312
  %11 = load ptr, ptr %10, align 8
  br i1 %or.cond5, label %12, label %13

12:                                               ; preds = %5
  tail call void @cli_event_error_str(ptr noundef %11, ptr noundef nonnull @.str.75) #29
  br label %23

13:                                               ; preds = %5
  tail call void @cli_event_fastdata(ptr noundef %11, i32 noundef 7, ptr noundef nonnull %1, i32 noundef %2) #29
  %14 = load ptr, ptr %10, align 8
  tail call void @cli_event_fastdata(ptr noundef %14, i32 noundef 8, ptr noundef nonnull %3, i32 noundef %4) #29
  %15 = zext nneg i32 %2 to i64
  %16 = zext nneg i32 %4 to i64
  %17 = tail call ptr @cli_memstr(ptr noundef nonnull %1, i64 noundef %15, ptr noundef nonnull %3, i64 noundef %16) #29
  %.not = icmp eq ptr %17, null
  br i1 %.not, label %23, label %18

18:                                               ; preds = %13
  %19 = ptrtoint ptr %17 to i64
  %20 = ptrtoint ptr %1 to i64
  %21 = sub i64 %19, %20
  %22 = trunc i64 %21 to i32
  br label %23

23:                                               ; preds = %13, %18, %12
  %.0 = phi i32 [ -1, %12 ], [ %22, %18 ], [ -1, %13 ]
  ret i32 %.0
}